target datalayout = "e-m:e-p270:32:32-p271:32:32-p272:64:64-i64:64-i128:128-f80:128-n8:16:32:64-S128"
target triple = "x86_64-pc-linux-gnu"

%struct.Texture = type { i32, i32, i32, i32, i32 }
%struct.Rectangle = type { float, float, float, float }
%struct.Color = type { i8, i8, i8, i8 }
%struct.Vector2 = type { float, float }

@texShapes = internal global %struct.Texture { i32 1, i32 1, i32 1, i32 1, i32 7 }, align 4
@texShapesRec = internal global %struct.Rectangle { float 0.000000e+00, float 0.000000e+00, float 1.000000e+00, float 1.000000e+00 }, align 4

; Function Attrs: nounwind uwtable
define { <2 x float>, <2 x float> } @GetShapesTextureRectangle() #2 {
  %1 = alloca %struct.Rectangle, align 4
  call void @llvm.memcpy.p0.p0.i64(ptr align 4 %1, ptr align 4 @texShapesRec, i64 16, i1 false)
  %2 = load { <2 x float>, <2 x float> }, ptr %1, align 4
  ret { <2 x float>, <2 x float> } %2
}

; Function Attrs: nounwind uwtable
define void @GetShapesTexture(ptr dead_on_unwind noalias writable sret(%struct.Texture) align 4 %0) #2 {
  call void @llvm.memcpy.p0.p0.i64(ptr align 4 %0, ptr align 4 @texShapes, i64 20, i1 false)
  ret void
}

; Function Attrs: nounwind uwtable
define void @DrawTriangleFan(ptr noundef %0, i32 noundef %1, i32 %2) #0 {
  %4 = alloca %struct.Color, align 1
  %5 = alloca ptr, align 8
  %6 = alloca i32, align 4
  %7 = alloca %struct.Texture, align 4
  %8 = alloca %struct.Rectangle, align 4
  %9 = alloca i32, align 4
  store i32 %2, ptr %4, align 1
  store ptr %0, ptr %5, align 8
  store i32 %1, ptr %6, align 4
  %10 = load i32, ptr %6, align 4
  %11 = icmp sge i32 %10, 3
  br i1 %11, label %12, label %139

12:                                               ; preds = %3
  call void @GetShapesTexture(ptr dead_on_unwind writable sret(%struct.Texture) align 4 %7)
  %13 = getelementptr inbounds nuw %struct.Texture, ptr %7, i32 0, i32 0
  %14 = load i32, ptr %13, align 4
  call void @rlSetTexture(i32 noundef %14)
  call void @llvm.lifetime.start.p0(i64 16, ptr %8) #8
  %15 = call { <2 x float>, <2 x float> } @GetShapesTextureRectangle()
  %16 = getelementptr inbounds nuw { <2 x float>, <2 x float> }, ptr %8, i32 0, i32 0
  %17 = extractvalue { <2 x float>, <2 x float> } %15, 0
  store <2 x float> %17, ptr %16, align 4
  %18 = getelementptr inbounds nuw { <2 x float>, <2 x float> }, ptr %8, i32 0, i32 1
  %19 = extractvalue { <2 x float>, <2 x float> } %15, 1
  store <2 x float> %19, ptr %18, align 4
  call void @rlBegin(i32 noundef 7)
  %20 = getelementptr inbounds nuw %struct.Color, ptr %4, i32 0, i32 0
  %21 = load i8, ptr %20, align 1
  %22 = getelementptr inbounds nuw %struct.Color, ptr %4, i32 0, i32 1
  %23 = load i8, ptr %22, align 1
  %24 = getelementptr inbounds nuw %struct.Color, ptr %4, i32 0, i32 2
  %25 = load i8, ptr %24, align 1
  %26 = getelementptr inbounds nuw %struct.Color, ptr %4, i32 0, i32 3
  %27 = load i8, ptr %26, align 1
  call void @rlColor4ub(i8 noundef zeroext %21, i8 noundef zeroext %23, i8 noundef zeroext %25, i8 noundef zeroext %27)
  call void @llvm.lifetime.start.p0(i64 4, ptr %9) #8
  store i32 1, ptr %9, align 4
  br label %28

28:                                               ; preds = %135, %12
  %29 = load i32, ptr %9, align 4
  %30 = load i32, ptr %6, align 4
  %31 = sub nsw i32 %30, 1
  %32 = icmp slt i32 %29, %31
  br i1 %32, label %34, label %33

33:                                               ; preds = %28
  call void @llvm.lifetime.end.p0(i64 4, ptr %9) #8
  br label %138

34:                                               ; preds = %28
  %35 = getelementptr inbounds nuw %struct.Rectangle, ptr %8, i32 0, i32 0
  %36 = load float, ptr %35, align 4
  %37 = load i32, ptr getelementptr inbounds nuw (%struct.Texture, ptr @texShapes, i32 0, i32 1), align 4
  %38 = sitofp i32 %37 to float
  %39 = fdiv float %36, %38
  %40 = getelementptr inbounds nuw %struct.Rectangle, ptr %8, i32 0, i32 1
  %41 = load float, ptr %40, align 4
  %42 = load i32, ptr getelementptr inbounds nuw (%struct.Texture, ptr @texShapes, i32 0, i32 2), align 4
  %43 = sitofp i32 %42 to float
  %44 = fdiv float %41, %43
  call void @rlTexCoord2f(float noundef %39, float noundef %44)
  %45 = load ptr, ptr %5, align 8
  %46 = getelementptr inbounds %struct.Vector2, ptr %45, i64 0
  %47 = getelementptr inbounds nuw %struct.Vector2, ptr %46, i32 0, i32 0
  %48 = load float, ptr %47, align 4
  %49 = load ptr, ptr %5, align 8
  %50 = getelementptr inbounds %struct.Vector2, ptr %49, i64 0
  %51 = getelementptr inbounds nuw %struct.Vector2, ptr %50, i32 0, i32 1
  %52 = load float, ptr %51, align 4
  call void @rlVertex2f(float noundef %48, float noundef %52)
  %53 = getelementptr inbounds nuw %struct.Rectangle, ptr %8, i32 0, i32 0
  %54 = load float, ptr %53, align 4
  %55 = load i32, ptr getelementptr inbounds nuw (%struct.Texture, ptr @texShapes, i32 0, i32 1), align 4
  %56 = sitofp i32 %55 to float
  %57 = fdiv float %54, %56
  %58 = getelementptr inbounds nuw %struct.Rectangle, ptr %8, i32 0, i32 1
  %59 = load float, ptr %58, align 4
  %60 = getelementptr inbounds nuw %struct.Rectangle, ptr %8, i32 0, i32 3
  %61 = load float, ptr %60, align 4
  %62 = fadd float %59, %61
  %63 = load i32, ptr getelementptr inbounds nuw (%struct.Texture, ptr @texShapes, i32 0, i32 2), align 4
  %64 = sitofp i32 %63 to float
  %65 = fdiv float %62, %64
  call void @rlTexCoord2f(float noundef %57, float noundef %65)
  %66 = load ptr, ptr %5, align 8
  %67 = load i32, ptr %9, align 4
  %68 = sext i32 %67 to i64
  %69 = getelementptr inbounds %struct.Vector2, ptr %66, i64 %68
  %70 = getelementptr inbounds nuw %struct.Vector2, ptr %69, i32 0, i32 0
  %71 = load float, ptr %70, align 4
  %72 = load ptr, ptr %5, align 8
  %73 = load i32, ptr %9, align 4
  %74 = sext i32 %73 to i64
  %75 = getelementptr inbounds %struct.Vector2, ptr %72, i64 %74
  %76 = getelementptr inbounds nuw %struct.Vector2, ptr %75, i32 0, i32 1
  %77 = load float, ptr %76, align 4
  call void @rlVertex2f(float noundef %71, float noundef %77)
  %78 = getelementptr inbounds nuw %struct.Rectangle, ptr %8, i32 0, i32 0
  %79 = load float, ptr %78, align 4
  %80 = getelementptr inbounds nuw %struct.Rectangle, ptr %8, i32 0, i32 2
  %81 = load float, ptr %80, align 4
  %82 = fadd float %79, %81
  %83 = load i32, ptr getelementptr inbounds nuw (%struct.Texture, ptr @texShapes, i32 0, i32 1), align 4
  %84 = sitofp i32 %83 to float
  %85 = fdiv float %82, %84
  %86 = getelementptr inbounds nuw %struct.Rectangle, ptr %8, i32 0, i32 1
  %87 = load float, ptr %86, align 4
  %88 = getelementptr inbounds nuw %struct.Rectangle, ptr %8, i32 0, i32 3
  %89 = load float, ptr %88, align 4
  %90 = fadd float %87, %89
  %91 = load i32, ptr getelementptr inbounds nuw (%struct.Texture, ptr @texShapes, i32 0, i32 2), align 4
  %92 = sitofp i32 %91 to float
  %93 = fdiv float %90, %92
  call void @rlTexCoord2f(float noundef %85, float noundef %93)
  %94 = load ptr, ptr %5, align 8
  %95 = load i32, ptr %9, align 4
  %96 = add nsw i32 %95, 1
  %97 = sext i32 %96 to i64
  %98 = getelementptr inbounds %struct.Vector2, ptr %94, i64 %97
  %99 = getelementptr inbounds nuw %struct.Vector2, ptr %98, i32 0, i32 0
  %100 = load float, ptr %99, align 4
  %101 = load ptr, ptr %5, align 8
  %102 = load i32, ptr %9, align 4
  %103 = add nsw i32 %102, 1
  %104 = sext i32 %103 to i64
  %105 = getelementptr inbounds %struct.Vector2, ptr %101, i64 %104
  %106 = getelementptr inbounds nuw %struct.Vector2, ptr %105, i32 0, i32 1
  %107 = load float, ptr %106, align 4
  call void @rlVertex2f(float noundef %100, float noundef %107)
  %108 = getelementptr inbounds nuw %struct.Rectangle, ptr %8, i32 0, i32 0
  %109 = load float, ptr %108, align 4
  %110 = getelementptr inbounds nuw %struct.Rectangle, ptr %8, i32 0, i32 2
  %111 = load float, ptr %110, align 4
  %112 = fadd float %109, %111
  %113 = load i32, ptr getelementptr inbounds nuw (%struct.Texture, ptr @texShapes, i32 0, i32 1), align 4
  %114 = sitofp i32 %113 to float
  %115 = fdiv float %112, %114
  %116 = getelementptr inbounds nuw %struct.Rectangle, ptr %8, i32 0, i32 1
  %117 = load float, ptr %116, align 4
  %118 = load i32, ptr getelementptr inbounds nuw (%struct.Texture, ptr @texShapes, i32 0, i32 2), align 4
  %119 = sitofp i32 %118 to float
  %120 = fdiv float %117, %119
  call void @rlTexCoord2f(float noundef %115, float noundef %120)
  %121 = load ptr, ptr %5, align 8
  %122 = load i32, ptr %9, align 4
  %123 = add nsw i32 %122, 1
  %124 = sext i32 %123 to i64
  %125 = getelementptr inbounds %struct.Vector2, ptr %121, i64 %124
  %126 = getelementptr inbounds nuw %struct.Vector2, ptr %125, i32 0, i32 0
  %127 = load float, ptr %126, align 4
  %128 = load ptr, ptr %5, align 8
  %129 = load i32, ptr %9, align 4
  %130 = add nsw i32 %129, 1
  %131 = sext i32 %130 to i64
  %132 = getelementptr inbounds %struct.Vector2, ptr %128, i64 %131
  %133 = getelementptr inbounds nuw %struct.Vector2, ptr %132, i32 0, i32 1
  %134 = load float, ptr %133, align 4
  call void @rlVertex2f(float noundef %127, float noundef %134)
  br label %135

135:                                              ; preds = %34
  %136 = load i32, ptr %9, align 4
  %137 = add nsw i32 %136, 1
  store i32 %137, ptr %9, align 4
  br label %28

138:                                              ; preds = %33
  call void @rlEnd()
  call void @rlSetTexture(i32 noundef 0)
  call void @llvm.lifetime.end.p0(i64 16, ptr %8) #8
  br label %139

139:                                              ; preds = %138, %3
  ret void
}