; Function Attrs: nounwind uwtable
define void @DrawTriangleFan(ptr noundef readonly captures(none) %0, i32 noundef %1, i32 %2) local_unnamed_addr #4 {
  %4 = icmp sgt i32 %1, 2
  br i1 %4, label %.lr.ph, label %48

.lr.ph:                                           ; preds = %3
  %.sroa.4.0.extract.shift = lshr i32 %2, 24
  %.sroa.4.0.extract.trunc = trunc nuw i32 %.sroa.4.0.extract.shift to i8
  %.sroa.3.0.extract.shift = lshr i32 %2, 16
  %.sroa.3.0.extract.trunc = trunc i32 %.sroa.3.0.extract.shift to i8
  %.sroa.2.0.extract.shift = lshr i32 %2, 8
  %.sroa.2.0.extract.trunc = trunc i32 %.sroa.2.0.extract.shift to i8
  %.sroa.033.0.extract.trunc = trunc i32 %2 to i8
  %.sroa.0.0.copyload = load i32, ptr @texShapes, align 4
  tail call void @rlSetTexture(i32 noundef %.sroa.0.0.copyload) #16
  %.sroa.0.0.copyload.i = load <2 x float>, ptr @texShapesRec, align 8
  %.sroa.2.0.copyload.i = load <2 x float>, ptr getelementptr inbounds nuw (i8, ptr @texShapesRec, i64 8), align 8
  tail call void @rlBegin(i32 noundef 7) #16
  tail call void @rlColor4ub(i8 noundef zeroext %.sroa.033.0.extract.trunc, i8 noundef zeroext %.sroa.2.0.extract.trunc, i8 noundef zeroext %.sroa.3.0.extract.trunc, i8 noundef zeroext %.sroa.4.0.extract.trunc) #16
  %5 = add nsw i32 %1, -1
  %.sroa.0.0.vec.extract = extractelement <2 x float> %.sroa.0.0.copyload.i, i64 0
  %.sroa.0.4.vec.extract = extractelement <2 x float> %.sroa.0.0.copyload.i, i64 1
  %6 = getelementptr inbounds nuw i8, ptr %0, i64 4
  %7 = fadd <2 x float> %.sroa.0.0.copyload.i, %.sroa.2.0.copyload.i
  %8 = extractelement <2 x float> %7, i64 1
  %9 = fadd <2 x float> %.sroa.0.0.copyload.i, %.sroa.2.0.copyload.i
  %10 = extractelement <2 x float> %9, i64 0
  %wide.trip.count = zext nneg i32 %5 to i64
  br label %11

._crit_edge:                                      ; preds = %11
  tail call void @rlEnd() #16
  tail call void @rlSetTexture(i32 noundef 0) #16
  br label %48

11:                                               ; preds = %.lr.ph, %11
  %indvars.iv = phi i64 [ 1, %.lr.ph ], [ %indvars.iv.next, %11 ]
  %12 = load i32, ptr getelementptr inbounds nuw (i8, ptr @texShapes, i64 4), align 4
  %13 = sitofp i32 %12 to float
  %14 = fdiv float %.sroa.0.0.vec.extract, %13
  %15 = load i32, ptr getelementptr inbounds nuw (i8, ptr @texShapes, i64 8), align 4
  %16 = sitofp i32 %15 to float
  %17 = fdiv float %.sroa.0.4.vec.extract, %16
  tail call void @rlTexCoord2f(float noundef %14, float noundef %17) #16
  %18 = load float, ptr %0, align 4
  %19 = load float, ptr %6, align 4
  tail call void @rlVertex2f(float noundef %18, float noundef %19) #16
  %20 = load i32, ptr getelementptr inbounds nuw (i8, ptr @texShapes, i64 4), align 4
  %21 = sitofp i32 %20 to float
  %22 = fdiv float %.sroa.0.0.vec.extract, %21
  %23 = load i32, ptr getelementptr inbounds nuw (i8, ptr @texShapes, i64 8), align 4
  %24 = sitofp i32 %23 to float
  %25 = fdiv float %8, %24
  tail call void @rlTexCoord2f(float noundef %22, float noundef %25) #16
  %26 = getelementptr inbounds nuw %struct.Vector2, ptr %0, i64 %indvars.iv
  %27 = load float, ptr %26, align 4
  %28 = getelementptr inbounds nuw i8, ptr %26, i64 4
  %29 = load float, ptr %28, align 4
  tail call void @rlVertex2f(float noundef %27, float noundef %29) #16
  %30 = load i32, ptr getelementptr inbounds nuw (i8, ptr @texShapes, i64 4), align 4
  %31 = sitofp i32 %30 to float
  %32 = fdiv float %10, %31
  %33 = load i32, ptr getelementptr inbounds nuw (i8, ptr @texShapes, i64 8), align 4
  %34 = sitofp i32 %33 to float
  %35 = fdiv float %8, %34
  tail call void @rlTexCoord2f(float noundef %32, float noundef %35) #16
  %indvars.iv.next = add nuw nsw i64 %indvars.iv, 1
  %36 = getelementptr inbounds nuw %struct.Vector2, ptr %0, i64 %indvars.iv.next
  %37 = load float, ptr %36, align 4
  %38 = getelementptr inbounds nuw i8, ptr %36, i64 4
  %39 = load float, ptr %38, align 4
  tail call void @rlVertex2f(float noundef %37, float noundef %39) #16
  %40 = load i32, ptr getelementptr inbounds nuw (i8, ptr @texShapes, i64 4), align 4
  %41 = sitofp i32 %40 to float
  %42 = fdiv float %10, %41
  %43 = load i32, ptr getelementptr inbounds nuw (i8, ptr @texShapes, i64 8), align 4
  %44 = sitofp i32 %43 to float
  %45 = fdiv float %.sroa.0.4.vec.extract, %44
  tail call void @rlTexCoord2f(float noundef %42, float noundef %45) #16
  %46 = load float, ptr %36, align 4
  %47 = load float, ptr %38, align 4
  tail call void @rlVertex2f(float noundef %46, float noundef %47) #16
  %exitcond.not = icmp eq i64 %indvars.iv.next, %wide.trip.count
  br i1 %exitcond.not, label %._crit_edge, label %11

48:                                               ; preds = %._crit_edge, %3
  ret void
}